target datalayout = "e-m:e-p270:32:32-p271:32:32-p272:64:64-i64:64-i128:128-f80:128-n8:16:32:64-S128"
target triple = "x86_64-pc-linux-gnu"

%struct.ddTableDeal = type { [4 x [4 x i32]] }
%struct.ddTableDealPBN = type { [80 x i8] }

; Function Attrs: mustprogress uwtable
define i32 @CalcDDtablePBN(ptr noundef byval(%struct.ddTableDealPBN) align 8 %0, ptr noundef %1) #4 {
  %3 = alloca i32, align 4
  %4 = alloca ptr, align 8
  %5 = alloca %struct.ddTableDeal, align 4
  %6 = alloca i32, align 4
  %7 = alloca %struct.ddTableDeal, align 8
  store ptr %1, ptr %4, align 8
  %8 = getelementptr inbounds nuw %struct.ddTableDealPBN, ptr %0, i32 0, i32 0
  %9 = getelementptr inbounds [80 x i8], ptr %8, i64 0, i64 0
  %10 = getelementptr inbounds nuw %struct.ddTableDeal, ptr %5, i32 0, i32 0
  %11 = getelementptr inbounds [4 x [4 x i32]], ptr %10, i64 0, i64 0
  %12 = call noundef i32 @_Z14ConvertFromPBNPKcPA4_j(ptr noundef %9, ptr noundef %11)
  %13 = icmp ne i32 %12, 1
  br i1 %13, label %14, label %15

14:                                               ; preds = %2
  store i32 -99, ptr %3, align 4
  br label %19

15:                                               ; preds = %2
  call void @llvm.memcpy.p0.p0.i64(ptr align 4 %7, ptr align 4 %5, i64 64, i1 false)
  %16 = load ptr, ptr %4, align 8
  %17 = call i32 @CalcDDtable(ptr noundef byval(%struct.ddTableDeal) align 8 %7, ptr noundef %16)
  store i32 %17, ptr %6, align 4
  %18 = load i32, ptr %6, align 4
  store i32 %18, ptr %3, align 4
  br label %19

19:                                               ; preds = %15, %14
  %20 = load i32, ptr %3, align 4
  ret i32 %20
}