; Function Attrs: mustprogress uwtable
define i32 @CalcDDtablePBN(ptr noundef byval(%struct.ddTableDealPBN) align 8 %0, ptr noundef writeonly captures(none) %1) local_unnamed_addr #3 {
  %3 = alloca %struct.ddTableDeal, align 8
  %4 = call noundef i32 @_Z14ConvertFromPBNPKcPA4_j(ptr noundef nonnull %0, ptr noundef nonnull %3)
  %.not = icmp eq i32 %4, 1
  br i1 %.not, label %5, label %7

5:                                                ; preds = %2
  %6 = call i32 @CalcDDtable(ptr noundef nonnull byval(%struct.ddTableDeal) align 8 %3, ptr noundef %1)
  br label %7

7:                                                ; preds = %2, %5
  %.0 = phi i32 [ %6, %5 ], [ -99, %2 ]
  ret i32 %.0
}